; Function Attrs: mustprogress nounwind uwtable
define hidden noundef ptr @_ZN13StubGenerator30base64_vbmi_lookup_hi_url_addrEv(ptr noundef nonnull align 8 dereferenceable(24) %0) local_unnamed_addr #0 align 2 {
  %2 = alloca %class.StubCodeMark, align 8
  %3 = getelementptr inbounds i8, ptr %0, i64 16
  %4 = load ptr, ptr %3, align 8
  tail call void @_ZN14MacroAssembler7align64Ev(ptr noundef nonnull align 8 dereferenceable(40) %4) #12
  call void @_ZN12StubCodeMarkC1EP17StubCodeGeneratorPKcS3_(ptr noundef nonnull align 8 dereferenceable(16) %2, ptr noundef nonnull %0, ptr noundef nonnull @.str, ptr noundef nonnull @.str.33) #12
  %5 = load ptr, ptr %3, align 8
  %6 = getelementptr inbounds i8, ptr %5, i64 8
  %7 = load ptr, ptr %6, align 8
  %8 = getelementptr inbounds i8, ptr %7, i64 16
  %9 = load ptr, ptr %8, align 8
  call void @_ZN9Assembler11emit_data64ElN9relocInfo9relocTypeEi(ptr noundef nonnull align 8 dereferenceable(40) %5, i64 noundef 433757350076153984, i32 noundef 0, i32 noundef 0) #12
  %10 = load ptr, ptr %3, align 8
  call void @_ZN9Assembler11emit_data64ElN9relocInfo9relocTypeEi(ptr noundef nonnull align 8 dereferenceable(40) %10, i64 noundef 1012478732780767239, i32 noundef 0, i32 noundef 0) #12
  %11 = load ptr, ptr %3, align 8
  call void @_ZN9Assembler11emit_data64ElN9relocInfo9relocTypeEi(ptr noundef nonnull align 8 dereferenceable(40) %11, i64 noundef 1591200115485380623, i32 noundef 0, i32 noundef 0) #12
  %12 = load ptr, ptr %3, align 8
  call void @_ZN9Assembler11emit_data64ElN9relocInfo9relocTypeEi(ptr noundef nonnull align 8 dereferenceable(40) %12, i64 noundef 4575798510801721367, i32 noundef 0, i32 noundef 0) #12
  %13 = load ptr, ptr %3, align 8
  call void @_ZN9Assembler11emit_data64ElN9relocInfo9relocTypeEi(ptr noundef nonnull align 8 dereferenceable(40) %13, i64 noundef 2314601843866147456, i32 noundef 0, i32 noundef 0) #12
  %14 = load ptr, ptr %3, align 8
  call void @_ZN9Assembler11emit_data64ElN9relocInfo9relocTypeEi(ptr noundef nonnull align 8 dereferenceable(40) %14, i64 noundef 2893323226570760737, i32 noundef 0, i32 noundef 0) #12
  %15 = load ptr, ptr %3, align 8
  call void @_ZN9Assembler11emit_data64ElN9relocInfo9relocTypeEi(ptr noundef nonnull align 8 dereferenceable(40) %15, i64 noundef 3472044609275374121, i32 noundef 0, i32 noundef 0) #12
  %16 = load ptr, ptr %3, align 8
  call void @_ZN9Assembler11emit_data64ElN9relocInfo9relocTypeEi(ptr noundef nonnull align 8 dereferenceable(40) %16, i64 noundef -9187201950440803791, i32 noundef 0, i32 noundef 0) #12
  call void @_ZN12StubCodeMarkD1Ev(ptr noundef nonnull align 8 dereferenceable(16) %2) #12
  ret ptr %9
}